Certificate:
    Data:
        Version: 3 (0x2)
        Serial Number: 1 (0x1)
    Signature Algorithm: sha256WithRSAEncryption
        Issuer: CN=www.crs.com
        Validity
            Not Before: Mar  2 18:47:56 2015 GMT
            Not After : Feb 27 18:47:56 2025 GMT
        Subject: CN=server
        Subject Public Key Info:
            Public Key Algorithm: rsaEncryption
                Public-Key: (2048 bit)
                Modulus:
                    00:bb:09:e4:e9:ef:ac:b6:25:4d:58:c6:20:79:65:
                    6b:ad:78:b2:73:1b:b3:a5:6a:7e:f0:23:31:ed:29:
                    6a:05:59:03:0c:84:bc:a6:48:a7:28:2b:fe:bc:82:
                    43:3c:96:62:37:6e:7d:b5:a8:c9:62:03:6c:8a:a8:
                    33:a0:2d:15:8c:5b:2e:d3:f3:7c:0c:13:95:c3:31:
                    5e:33:c7:39:ae:1c:4b:ce:30:ec:c4:2a:ca:5a:dd:
                    16:18:10:19:92:93:9b:60:61:f8:c4:8a:6f:54:bd:
                    26:c2:d3:da:25:74:ef:74:a4:de:24:2d:71:40:7d:
                    d7:0b:ea:3c:10:96:15:f5:64:c2:48:5f:a5:78:76:
                    cb:6d:13:bb:25:85:a4:a0:76:61:91:40:12:30:7c:
                    aa:b2:1a:64:0b:90:1e:35:cb:48:00:fb:86:f6:8b:
                    d4:cd:25:92:7c:36:35:14:07:88:81:96:77:10:9b:
                    95:65:3c:c5:7b:80:da:ea:67:8b:4f:f0:79:17:48:
                    d1:b7:ae:e2:ac:df:05:8b:7b:fe:99:16:d3:4b:4f:
                    14:4b:01:26:52:23:cf:e7:84:f9:17:1d:c2:2a:a4:
                    be:ba:b4:07:65:35:a8:1d:c0:df:25:d2:03:e1:0c:
                    3b:8c:6f:6b:ba:f6:49:10:7b:0c:ed:7a:04:e5:17:
                    f7:73
                Exponent: 65537 (0x10001)
        X509v3 extensions:
            X509v3 Basic Constraints: 
                CA:FALSE
            X509v3 Subject Key Identifier: 
                DC:D2:14:27:66:AB:96:C1:04:69:B2:7E:AF:7E:C4:70:04:F8:99:7F
            X509v3 Authority Key Identifier: 
                keyid:39:A1:B4:F0:F4:5C:19:06:9F:B8:F6:DE:30:05:F8:39:48:90:F8:46
                DirName:/CN=www.crs.com
                serial:BC:2F:08:22:6C:37:77:AD

            X509v3 Extended Key Usage: 
                TLS Web Server Authentication
            X509v3 Key Usage: 
                Digital Signature, Key Encipherment
    Signature Algorithm: sha256WithRSAEncryption
         82:e2:b8:42:80:78:b3:45:50:69:b7:a3:49:b3:40:b9:1b:0b:
         8b:67:e0:df:3c:07:0d:4f:0e:77:37:df:bc:9e:45:8f:3a:d7:
         cb:6d:55:77:b0:31:bb:b9:34:a1:23:50:fd:c7:fb:49:c7:e7:
         ee:f3:c4:3b:15:3f:08:b3:4a:bf:4a:df:17:39:58:bc:52:9b:
         ae:46:9d:2b:c8:44:9a:f4:28:e2:55:cd:5c:f1:67:1b:59:16:
         36:f8:55:45:98:00:44:19:37:50:f0:a5:de:87:7d:53:77:39:
         e4:53:64:07:af:03:26:a5:c6:86:25:15:bc:32:29:54:54:35:
         57:df:0a:dc:98:ab:04:6c:e6:17:fa:cc:03:12:6f:c6:14:ad:
         2e:e3:50:00:d5:2d:e8:34:04:dd:02:51:13:2f:e2:fd:67:1a:
         19:e7:7d:f6:78:ea:ad:b8:ba:8b:1f:ac:e8:5c:90:02:7b:81:
         91:b2:a4:e9:6d:cf:3b:27:67:dc:d5:3d:5a:19:67:bf:c6:a2:
         24:de:32:95:99:02:5b:96:9d:de:89:9b:67:46:e8:32:9e:74:
         66:eb:e7:79:2b:0b:ce:01:5b:47:a7:ee:56:3e:ef:7b:72:ab:
         e1:0c:88:8f:b6:48:cb:14:29:d1:b8:2e:80:10:05:49:ca:60:
         c4:c2:32:9b
-----BEGIN CERTIFICATE-----
MIIDOjCCAiKgAwIBAgIBATANBgkqhkiG9w0BAQsFADAWMRQwEgYDVQQDEwt3d3cu
Y3JzLmNvbTAeFw0xNTAzMDIxODQ3NTZaFw0yNTAyMjcxODQ3NTZaMBExDzANBgNV
BAMTBnNlcnZlcjCCASIwDQYJKoZIhvcNAQEBBQADggEPADCCAQoCggEBALsJ5Onv
rLYlTVjGIHlla614snMbs6VqfvAjMe0pagVZAwyEvKZIpygr/ryCQzyWYjdufbWo
yWIDbIqoM6AtFYxbLtPzfAwTlcMxXjPHOa4cS84w7MQqylrdFhgQGZKTm2Bh+MSK
b1S9JsLT2iV073Sk3iQtcUB91wvqPBCWFfVkwkhfpXh2y20TuyWFpKB2YZFAEjB8
qrIaZAuQHjXLSAD7hvaL1M0lknw2NRQHiIGWdxCblWU8xXuA2upni0/weRdI0beu
4qzfBYt7/pkW00tPFEsBJlIjz+eE+Rcdwiqkvrq0B2U1qB3A3yXSA+EMO4xva7r2
SRB7DO16BOUX93MCAwEAAaOBlzCBlDAJBgNVHRMEAjAAMB0GA1UdDgQWBBTc0hQn
ZquWwQRpsn6vfsRwBPiZfzBGBgNVHSMEPzA9gBQ5obTw9FwZBp+49t4wBfg5SJD4
RqEapBgwFjEUMBIGA1UEAxMLd3d3LmNycy5jb22CCQC8LwgibDd3rTATBgNVHSUE
DDAKBggrBgEFBQcDATALBgNVHQ8EBAMCBaAwDQYJKoZIhvcNAQELBQADggEBAILi
uEKAeLNFUGm3o0mzQLkbC4tn4N88Bw1PDnc337yeRY8618ttVXewMbu5NKEjUP3H
+0nH5+7zxDsVPwizSr9K3xc5WLxSm65GnSvIRJr0KOJVzVzxZxtZFjb4VUWYAEQZ
N1Dwpd6HfVN3OeRTZAevAyalxoYlFbwyKVRUNVffCtyYqwRs5hf6zAMSb8YUrS7j
UADVLeg0BN0CURMv4v1nGhnnffZ46q24uosfrOhckAJ7gZGypOltzzsnZ9zVPVoZ
Z7/GoiTeMpWZAluWnd6Jm2dG6DKedGbr53krC84BW0en7lY+73tyq+EMiI+2SMsU
KdG4LoAQBUnKYMTCMps=
-----END CERTIFICATE-----
